target datalayout = "e-m:e-p270:32:32-p271:32:32-p272:64:64-i64:64-i128:128-f80:128-n8:16:32:64-S128"
target triple = "x86_64-unknown-linux-gnu"

%struct.bignum_st = type { ptr, i32, i32, i32, i32 }

; Function Attrs: nounwind uwtable
define internal ptr @euclid(ptr noundef %a, ptr noundef %b) #0 {
entry:
  %retval = alloca ptr, align 8
  %a.addr = alloca ptr, align 8
  %b.addr = alloca ptr, align 8
  %t = alloca ptr, align 8
  %shifts = alloca i32, align 4
  store ptr %a, ptr %a.addr, align 8
  store ptr %b, ptr %b.addr, align 8
  store i32 0, ptr %shifts, align 4
  br label %while.cond

while.cond:                                       ; preds = %if.end47, %entry
  %0 = load ptr, ptr %b.addr, align 8
  %call = call i32 @BN_is_zero(ptr noundef %0)
  %tobool = icmp ne i32 %call, 0
  %lnot = xor i1 %tobool, true
  br i1 %lnot, label %while.body, label %while.end

while.body:                                       ; preds = %while.cond
  %1 = load ptr, ptr %a.addr, align 8
  %call1 = call i32 @BN_is_odd(ptr noundef %1)
  %tobool2 = icmp ne i32 %call1, 0
  br i1 %tobool2, label %if.then, label %if.else25

if.then:                                          ; preds = %while.body
  %2 = load ptr, ptr %b.addr, align 8
  %call3 = call i32 @BN_is_odd(ptr noundef %2)
  %tobool4 = icmp ne i32 %call3, 0
  br i1 %tobool4, label %if.then5, label %if.else

if.then5:                                         ; preds = %if.then
  %3 = load ptr, ptr %a.addr, align 8
  %4 = load ptr, ptr %a.addr, align 8
  %5 = load ptr, ptr %b.addr, align 8
  %call6 = call i32 @BN_sub(ptr noundef %3, ptr noundef %4, ptr noundef %5)
  %tobool7 = icmp ne i32 %call6, 0
  br i1 %tobool7, label %if.end, label %if.then8

if.then8:                                         ; preds = %if.then5
  br label %err

if.end:                                           ; preds = %if.then5
  %6 = load ptr, ptr %a.addr, align 8
  %7 = load ptr, ptr %a.addr, align 8
  %call9 = call i32 @BN_rshift1(ptr noundef %6, ptr noundef %7)
  %tobool10 = icmp ne i32 %call9, 0
  br i1 %tobool10, label %if.end12, label %if.then11

if.then11:                                        ; preds = %if.end
  br label %err

if.end12:                                         ; preds = %if.end
  %8 = load ptr, ptr %a.addr, align 8
  %9 = load ptr, ptr %b.addr, align 8
  %call13 = call i32 @BN_cmp(ptr noundef %8, ptr noundef %9)
  %cmp = icmp slt i32 %call13, 0
  br i1 %cmp, label %if.then14, label %if.end15

if.then14:                                        ; preds = %if.end12
  %10 = load ptr, ptr %a.addr, align 8
  store ptr %10, ptr %t, align 8
  %11 = load ptr, ptr %b.addr, align 8
  store ptr %11, ptr %a.addr, align 8
  %12 = load ptr, ptr %t, align 8
  store ptr %12, ptr %b.addr, align 8
  br label %if.end15

if.end15:                                         ; preds = %if.then14, %if.end12
  br label %if.end24

if.else:                                          ; preds = %if.then
  %13 = load ptr, ptr %b.addr, align 8
  %14 = load ptr, ptr %b.addr, align 8
  %call16 = call i32 @BN_rshift1(ptr noundef %13, ptr noundef %14)
  %tobool17 = icmp ne i32 %call16, 0
  br i1 %tobool17, label %if.end19, label %if.then18

if.then18:                                        ; preds = %if.else
  br label %err

if.end19:                                         ; preds = %if.else
  %15 = load ptr, ptr %a.addr, align 8
  %16 = load ptr, ptr %b.addr, align 8
  %call20 = call i32 @BN_cmp(ptr noundef %15, ptr noundef %16)
  %cmp21 = icmp slt i32 %call20, 0
  br i1 %cmp21, label %if.then22, label %if.end23

if.then22:                                        ; preds = %if.end19
  %17 = load ptr, ptr %a.addr, align 8
  store ptr %17, ptr %t, align 8
  %18 = load ptr, ptr %b.addr, align 8
  store ptr %18, ptr %a.addr, align 8
  %19 = load ptr, ptr %t, align 8
  store ptr %19, ptr %b.addr, align 8
  br label %if.end23

if.end23:                                         ; preds = %if.then22, %if.end19
  br label %if.end24

if.end24:                                         ; preds = %if.end23, %if.end15
  br label %if.end47

if.else25:                                        ; preds = %while.body
  %20 = load ptr, ptr %b.addr, align 8
  %call26 = call i32 @BN_is_odd(ptr noundef %20)
  %tobool27 = icmp ne i32 %call26, 0
  br i1 %tobool27, label %if.then28, label %if.else37

if.then28:                                        ; preds = %if.else25
  %21 = load ptr, ptr %a.addr, align 8
  %22 = load ptr, ptr %a.addr, align 8
  %call29 = call i32 @BN_rshift1(ptr noundef %21, ptr noundef %22)
  %tobool30 = icmp ne i32 %call29, 0
  br i1 %tobool30, label %if.end32, label %if.then31

if.then31:                                        ; preds = %if.then28
  br label %err

if.end32:                                         ; preds = %if.then28
  %23 = load ptr, ptr %a.addr, align 8
  %24 = load ptr, ptr %b.addr, align 8
  %call33 = call i32 @BN_cmp(ptr noundef %23, ptr noundef %24)
  %cmp34 = icmp slt i32 %call33, 0
  br i1 %cmp34, label %if.then35, label %if.end36

if.then35:                                        ; preds = %if.end32
  %25 = load ptr, ptr %a.addr, align 8
  store ptr %25, ptr %t, align 8
  %26 = load ptr, ptr %b.addr, align 8
  store ptr %26, ptr %a.addr, align 8
  %27 = load ptr, ptr %t, align 8
  store ptr %27, ptr %b.addr, align 8
  br label %if.end36

if.end36:                                         ; preds = %if.then35, %if.end32
  br label %if.end46

if.else37:                                        ; preds = %if.else25
  %28 = load ptr, ptr %a.addr, align 8
  %29 = load ptr, ptr %a.addr, align 8
  %call38 = call i32 @BN_rshift1(ptr noundef %28, ptr noundef %29)
  %tobool39 = icmp ne i32 %call38, 0
  br i1 %tobool39, label %if.end41, label %if.then40

if.then40:                                        ; preds = %if.else37
  br label %err

if.end41:                                         ; preds = %if.else37
  %30 = load ptr, ptr %b.addr, align 8
  %31 = load ptr, ptr %b.addr, align 8
  %call42 = call i32 @BN_rshift1(ptr noundef %30, ptr noundef %31)
  %tobool43 = icmp ne i32 %call42, 0
  br i1 %tobool43, label %if.end45, label %if.then44

if.then44:                                        ; preds = %if.end41
  br label %err

if.end45:                                         ; preds = %if.end41
  %32 = load i32, ptr %shifts, align 4
  %inc = add nsw i32 %32, 1
  store i32 %inc, ptr %shifts, align 4
  br label %if.end46

if.end46:                                         ; preds = %if.end45, %if.end36
  br label %if.end47

if.end47:                                         ; preds = %if.end46, %if.end24
  br label %while.cond, !llvm.loop !7

while.end:                                        ; preds = %while.cond
  %33 = load i32, ptr %shifts, align 4
  %tobool48 = icmp ne i32 %33, 0
  br i1 %tobool48, label %if.then49, label %if.end54

if.then49:                                        ; preds = %while.end
  %34 = load ptr, ptr %a.addr, align 8
  %35 = load ptr, ptr %a.addr, align 8
  %36 = load i32, ptr %shifts, align 4
  %call50 = call i32 @BN_lshift(ptr noundef %34, ptr noundef %35, i32 noundef %36)
  %tobool51 = icmp ne i32 %call50, 0
  br i1 %tobool51, label %if.end53, label %if.then52

if.then52:                                        ; preds = %if.then49
  br label %err

if.end53:                                         ; preds = %if.then49
  br label %if.end54

if.end54:                                         ; preds = %if.end53, %while.end
  %37 = load ptr, ptr %a.addr, align 8
  store ptr %37, ptr %retval, align 8
  br label %return

err:                                              ; preds = %if.then52, %if.then44, %if.then40, %if.then31, %if.then18, %if.then11, %if.then8
  store ptr null, ptr %retval, align 8
  br label %return

return:                                           ; preds = %err, %if.end54
  %38 = load ptr, ptr %retval, align 8
  ret ptr %38
}

; Function Attrs: nounwind uwtable
define hidden i32 @BN_gcd(ptr noundef %r, ptr noundef %in_a, ptr noundef %in_b, ptr noundef %ctx) #0 {
entry:
  %r.addr = alloca ptr, align 8
  %in_a.addr = alloca ptr, align 8
  %in_b.addr = alloca ptr, align 8
  %ctx.addr = alloca ptr, align 8
  %a = alloca ptr, align 8
  %b = alloca ptr, align 8
  %t = alloca ptr, align 8
  %ret = alloca i32, align 4
  store ptr %r, ptr %r.addr, align 8
  store ptr %in_a, ptr %in_a.addr, align 8
  store ptr %in_b, ptr %in_b.addr, align 8
  store ptr %ctx, ptr %ctx.addr, align 8
  store i32 0, ptr %ret, align 4
  %0 = load ptr, ptr %ctx.addr, align 8
  call void @BN_CTX_start(ptr noundef %0)
  %1 = load ptr, ptr %ctx.addr, align 8
  %call = call ptr @BN_CTX_get(ptr noundef %1)
  store ptr %call, ptr %a, align 8
  %2 = load ptr, ptr %ctx.addr, align 8
  %call1 = call ptr @BN_CTX_get(ptr noundef %2)
  store ptr %call1, ptr %b, align 8
  %3 = load ptr, ptr %a, align 8
  %cmp = icmp eq ptr %3, null
  br i1 %cmp, label %if.then, label %lor.lhs.false

lor.lhs.false:                                    ; preds = %entry
  %4 = load ptr, ptr %b, align 8
  %cmp2 = icmp eq ptr %4, null
  br i1 %cmp2, label %if.then, label %if.end

if.then:                                          ; preds = %lor.lhs.false, %entry
  br label %err

if.end:                                           ; preds = %lor.lhs.false
  %5 = load ptr, ptr %a, align 8
  %6 = load ptr, ptr %in_a.addr, align 8
  %call3 = call ptr @BN_copy(ptr noundef %5, ptr noundef %6)
  %cmp4 = icmp eq ptr %call3, null
  br i1 %cmp4, label %if.then5, label %if.end6

if.then5:                                         ; preds = %if.end
  br label %err

if.end6:                                          ; preds = %if.end
  %7 = load ptr, ptr %b, align 8
  %8 = load ptr, ptr %in_b.addr, align 8
  %call7 = call ptr @BN_copy(ptr noundef %7, ptr noundef %8)
  %cmp8 = icmp eq ptr %call7, null
  br i1 %cmp8, label %if.then9, label %if.end10

if.then9:                                         ; preds = %if.end6
  br label %err

if.end10:                                         ; preds = %if.end6
  %9 = load ptr, ptr %a, align 8
  %neg = getelementptr inbounds %struct.bignum_st, ptr %9, i32 0, i32 3
  store i32 0, ptr %neg, align 8
  %10 = load ptr, ptr %b, align 8
  %neg11 = getelementptr inbounds %struct.bignum_st, ptr %10, i32 0, i32 3
  store i32 0, ptr %neg11, align 8
  %11 = load ptr, ptr %a, align 8
  %12 = load ptr, ptr %b, align 8
  %call12 = call i32 @BN_cmp(ptr noundef %11, ptr noundef %12)
  %cmp13 = icmp slt i32 %call12, 0
  br i1 %cmp13, label %if.then14, label %if.end15

if.then14:                                        ; preds = %if.end10
  %13 = load ptr, ptr %a, align 8
  store ptr %13, ptr %t, align 8
  %14 = load ptr, ptr %b, align 8
  store ptr %14, ptr %a, align 8
  %15 = load ptr, ptr %t, align 8
  store ptr %15, ptr %b, align 8
  br label %if.end15

if.end15:                                         ; preds = %if.then14, %if.end10
  %16 = load ptr, ptr %a, align 8
  %17 = load ptr, ptr %b, align 8
  %call16 = call ptr @euclid(ptr noundef %16, ptr noundef %17)
  store ptr %call16, ptr %t, align 8
  %18 = load ptr, ptr %t, align 8
  %cmp17 = icmp eq ptr %18, null
  br i1 %cmp17, label %if.then18, label %if.end19

if.then18:                                        ; preds = %if.end15
  br label %err

if.end19:                                         ; preds = %if.end15
  %19 = load ptr, ptr %r.addr, align 8
  %20 = load ptr, ptr %t, align 8
  %call20 = call ptr @BN_copy(ptr noundef %19, ptr noundef %20)
  %cmp21 = icmp eq ptr %call20, null
  br i1 %cmp21, label %if.then22, label %if.end23

if.then22:                                        ; preds = %if.end19
  br label %err

if.end23:                                         ; preds = %if.end19
  store i32 1, ptr %ret, align 4
  br label %err

err:                                              ; preds = %if.end23, %if.then22, %if.then18, %if.then9, %if.then5, %if.then
  %21 = load ptr, ptr %ctx.addr, align 8
  call void @BN_CTX_end(ptr noundef %21)
  %22 = load i32, ptr %ret, align 4
  ret i32 %22
}