; Function Attrs: nounwind uwtable
define hidden range(i32 0, 2) i32 @BN_gcd(ptr noundef %r, ptr noundef %in_a, ptr noundef %in_b, ptr noundef %ctx) local_unnamed_addr #0 {
entry:
  tail call void @BN_CTX_start(ptr noundef %ctx) #3
  %call = tail call ptr @BN_CTX_get(ptr noundef %ctx) #3
  %call1 = tail call ptr @BN_CTX_get(ptr noundef %ctx) #3
  %cmp = icmp eq ptr %call, null
  %cmp2 = icmp eq ptr %call1, null
  %or.cond = select i1 %cmp, i1 true, i1 %cmp2
  br i1 %or.cond, label %err, label %if.end

if.end:                                           ; preds = %entry
  %call3 = tail call ptr @BN_copy(ptr noundef nonnull %call, ptr noundef %in_a) #3
  %cmp4 = icmp eq ptr %call3, null
  br i1 %cmp4, label %err, label %if.end6

if.end6:                                          ; preds = %if.end
  %call7 = tail call ptr @BN_copy(ptr noundef nonnull %call1, ptr noundef %in_b) #3
  %cmp8 = icmp eq ptr %call7, null
  br i1 %cmp8, label %err, label %if.end10

if.end10:                                         ; preds = %if.end6
  %neg = getelementptr inbounds nuw i8, ptr %call, i64 16
  store i32 0, ptr %neg, align 8
  %neg11 = getelementptr inbounds nuw i8, ptr %call1, i64 16
  store i32 0, ptr %neg11, align 8
  %call12 = tail call i32 @BN_cmp(ptr noundef nonnull %call, ptr noundef nonnull %call1) #3
  %cmp13 = icmp slt i32 %call12, 0
  %spec.select = select i1 %cmp13, ptr %call1, ptr %call
  %spec.select16 = select i1 %cmp13, ptr %call, ptr %call1
  %call43.i = tail call i32 @BN_is_zero(ptr noundef nonnull %spec.select16) #3
  %tobool.not44.i = icmp eq i32 %call43.i, 0
  br i1 %tobool.not44.i, label %while.body.i, label %if.end19

while.body.i:                                     ; preds = %if.end10, %if.end47.i
  %shifts.047.i = phi i32 [ %shifts.1.i, %if.end47.i ], [ 0, %if.end10 ]
  %b.addr.046.i = phi ptr [ %b.addr.1.i, %if.end47.i ], [ %spec.select16, %if.end10 ]
  %a.addr.045.i = phi ptr [ %a.addr.1.i, %if.end47.i ], [ %spec.select, %if.end10 ]
  %call1.i = tail call i32 @BN_is_odd(ptr noundef %a.addr.045.i) #3
  %tobool2.not.i = icmp eq i32 %call1.i, 0
  %call26.i = tail call i32 @BN_is_odd(ptr noundef %b.addr.046.i) #3
  %tobool27.not.i = icmp eq i32 %call26.i, 0
  br i1 %tobool2.not.i, label %if.else25.i, label %if.then.i

if.then.i:                                        ; preds = %while.body.i
  br i1 %tobool27.not.i, label %if.else.i, label %if.then5.i

if.then5.i:                                       ; preds = %if.then.i
  %call6.i = tail call i32 @BN_sub(ptr noundef %a.addr.045.i, ptr noundef %a.addr.045.i, ptr noundef %b.addr.046.i) #3
  %tobool7.not.i = icmp eq i32 %call6.i, 0
  br i1 %tobool7.not.i, label %err, label %if.end.i

if.end.i:                                         ; preds = %if.then5.i
  %call9.i = tail call i32 @BN_rshift1(ptr noundef %a.addr.045.i, ptr noundef %a.addr.045.i) #3
  %tobool10.not.i = icmp eq i32 %call9.i, 0
  br i1 %tobool10.not.i, label %err, label %if.end12.i

if.end12.i:                                       ; preds = %if.end.i
  %call13.i = tail call i32 @BN_cmp(ptr noundef %a.addr.045.i, ptr noundef %b.addr.046.i) #3
  %cmp.i = icmp slt i32 %call13.i, 0
  %spec.select.i = select i1 %cmp.i, ptr %b.addr.046.i, ptr %a.addr.045.i
  %spec.select35.i = select i1 %cmp.i, ptr %a.addr.045.i, ptr %b.addr.046.i
  br label %if.end47.i

if.else.i:                                        ; preds = %if.then.i
  %call16.i = tail call i32 @BN_rshift1(ptr noundef %b.addr.046.i, ptr noundef %b.addr.046.i) #3
  %tobool17.not.i = icmp eq i32 %call16.i, 0
  br i1 %tobool17.not.i, label %err, label %if.end19.i

if.end19.i:                                       ; preds = %if.else.i
  %call20.i = tail call i32 @BN_cmp(ptr noundef %a.addr.045.i, ptr noundef %b.addr.046.i) #3
  %cmp21.i = icmp slt i32 %call20.i, 0
  %spec.select36.i = select i1 %cmp21.i, ptr %b.addr.046.i, ptr %a.addr.045.i
  %spec.select37.i = select i1 %cmp21.i, ptr %a.addr.045.i, ptr %b.addr.046.i
  br label %if.end47.i

if.else25.i:                                      ; preds = %while.body.i
  %call38.i = tail call i32 @BN_rshift1(ptr noundef %a.addr.045.i, ptr noundef %a.addr.045.i) #3
  %tobool39.not.i = icmp eq i32 %call38.i, 0
  br i1 %tobool27.not.i, label %if.else37.i, label %if.then28.i

if.then28.i:                                      ; preds = %if.else25.i
  br i1 %tobool39.not.i, label %err, label %if.end32.i

if.end32.i:                                       ; preds = %if.then28.i
  %call33.i = tail call i32 @BN_cmp(ptr noundef %a.addr.045.i, ptr noundef %b.addr.046.i) #3
  %cmp34.i = icmp slt i32 %call33.i, 0
  %spec.select38.i = select i1 %cmp34.i, ptr %b.addr.046.i, ptr %a.addr.045.i
  %spec.select39.i = select i1 %cmp34.i, ptr %a.addr.045.i, ptr %b.addr.046.i
  br label %if.end47.i

if.else37.i:                                      ; preds = %if.else25.i
  br i1 %tobool39.not.i, label %err, label %if.end41.i

if.end41.i:                                       ; preds = %if.else37.i
  %call42.i = tail call i32 @BN_rshift1(ptr noundef %b.addr.046.i, ptr noundef %b.addr.046.i) #3
  %tobool43.not.i = icmp eq i32 %call42.i, 0
  br i1 %tobool43.not.i, label %err, label %if.end45.i

if.end45.i:                                       ; preds = %if.end41.i
  %inc.i = add nsw i32 %shifts.047.i, 1
  br label %if.end47.i

if.end47.i:                                       ; preds = %if.end45.i, %if.end32.i, %if.end19.i, %if.end12.i
  %a.addr.1.i = phi ptr [ %a.addr.045.i, %if.end45.i ], [ %spec.select.i, %if.end12.i ], [ %spec.select36.i, %if.end19.i ], [ %spec.select38.i, %if.end32.i ]
  %b.addr.1.i = phi ptr [ %b.addr.046.i, %if.end45.i ], [ %spec.select35.i, %if.end12.i ], [ %spec.select37.i, %if.end19.i ], [ %spec.select39.i, %if.end32.i ]
  %shifts.1.i = phi i32 [ %inc.i, %if.end45.i ], [ %shifts.047.i, %if.end12.i ], [ %shifts.047.i, %if.end19.i ], [ %shifts.047.i, %if.end32.i ]
  %call.i = tail call i32 @BN_is_zero(ptr noundef %b.addr.1.i) #3
  %tobool.not.i = icmp eq i32 %call.i, 0
  br i1 %tobool.not.i, label %while.body.i, label %while.end.i, !llvm.loop !7

while.end.i:                                      ; preds = %if.end47.i
  %tobool48.not.i = icmp eq i32 %shifts.1.i, 0
  br i1 %tobool48.not.i, label %euclid.exit, label %if.then49.i

if.then49.i:                                      ; preds = %while.end.i
  %call50.i = tail call i32 @BN_lshift(ptr noundef %a.addr.1.i, ptr noundef %a.addr.1.i, i32 noundef %shifts.1.i) #3
  %tobool51.not.i = icmp eq i32 %call50.i, 0
  %cmp17 = icmp eq ptr %a.addr.1.i, null
  %or.cond24 = select i1 %tobool51.not.i, i1 true, i1 %cmp17
  br i1 %or.cond24, label %err, label %if.end19

euclid.exit:                                      ; preds = %while.end.i
  %cmp17.old = icmp eq ptr %a.addr.1.i, null
  br i1 %cmp17.old, label %err, label %if.end19

if.end19:                                         ; preds = %if.then49.i, %if.end10, %euclid.exit
  %retval.0.i23 = phi ptr [ %a.addr.1.i, %euclid.exit ], [ %spec.select, %if.end10 ], [ %a.addr.1.i, %if.then49.i ]
  %call20 = tail call ptr @BN_copy(ptr noundef %r, ptr noundef nonnull %retval.0.i23) #3
  %cmp21 = icmp ne ptr %call20, null
  %spec.select17 = zext i1 %cmp21 to i32
  br label %err

err:                                              ; preds = %if.end41.i, %if.else37.i, %if.then28.i, %if.else.i, %if.end.i, %if.then5.i, %if.then49.i, %if.end19, %euclid.exit, %if.end6, %if.end, %entry
  %ret.0 = phi i32 [ 0, %entry ], [ 0, %if.end ], [ 0, %if.end6 ], [ 0, %euclid.exit ], [ %spec.select17, %if.end19 ], [ 0, %if.then49.i ], [ 0, %if.then5.i ], [ 0, %if.end.i ], [ 0, %if.else.i ], [ 0, %if.then28.i ], [ 0, %if.else37.i ], [ 0, %if.end41.i ]
  tail call void @BN_CTX_end(ptr noundef %ctx) #3
  ret i32 %ret.0
}